; Function Attrs: mustprogress nounwind uwtable
define hidden void @_ZN6Method11unlink_codeEP7nmethod(ptr noundef nonnull align 8 dereferenceable(88) %0, ptr noundef readonly %1) local_unnamed_addr #0 align 2 {
  %3 = load ptr, ptr @NMethodState_lock, align 8
  %4 = tail call noundef zeroext i1 @_ZNK5Mutex13owned_by_selfEv(ptr noundef nonnull align 8 dereferenceable(104) %3) #23
  br i1 %4, label %_ZN22ConditionalMutexLockerC2EP5MutexbNS0_18SafepointCheckFlagE.exit, label %5

5:                                                ; preds = %2
  tail call void @_ZN5Mutex28lock_without_safepoint_checkEv(ptr noundef nonnull align 8 dereferenceable(104) %3) #23
  br label %_ZN22ConditionalMutexLockerC2EP5MutexbNS0_18SafepointCheckFlagE.exit

_ZN22ConditionalMutexLockerC2EP5MutexbNS0_18SafepointCheckFlagE.exit: ; preds = %2, %5
  %6 = getelementptr inbounds i8, ptr %0, i64 72
  %7 = load volatile ptr, ptr %6, align 8
  tail call void asm sideeffect "", "~{memory},~{dirflag},~{fpsr},~{flags}"() #23, !srcloc !6
  %8 = icmp eq ptr %7, %1
  br i1 %8, label %21, label %9

9:                                                ; preds = %_ZN22ConditionalMutexLockerC2EP5MutexbNS0_18SafepointCheckFlagE.exit
  %10 = getelementptr inbounds i8, ptr %0, i64 64
  %11 = load volatile ptr, ptr %10, align 8
  tail call void asm sideeffect "", "~{memory},~{dirflag},~{fpsr},~{flags}"() #23, !srcloc !6
  %12 = getelementptr inbounds i8, ptr %1, i64 36
  %13 = load i32, ptr %12, align 4
  %14 = sext i32 %13 to i64
  %15 = getelementptr inbounds i8, ptr %1, i64 %14
  %16 = getelementptr inbounds i8, ptr %1, i64 146
  %17 = load i16, ptr %16, align 2
  %18 = zext i16 %17 to i64
  %19 = getelementptr inbounds i8, ptr %15, i64 %18
  %20 = icmp eq ptr %11, %19
  br i1 %20, label %21, label %32

21:                                               ; preds = %9, %_ZN22ConditionalMutexLockerC2EP5MutexbNS0_18SafepointCheckFlagE.exit
  %22 = getelementptr inbounds i8, ptr %0, i64 32
  %23 = load ptr, ptr %22, align 8
  %24 = icmp eq ptr %23, null
  br i1 %24, label %_ZN6Method10clear_codeEv.exit, label %25

25:                                               ; preds = %21
  %26 = getelementptr inbounds i8, ptr %23, i64 16
  %27 = load ptr, ptr %26, align 8
  br label %_ZN6Method10clear_codeEv.exit

_ZN6Method10clear_codeEv.exit:                    ; preds = %21, %25
  %.sink.i = phi ptr [ %27, %25 ], [ null, %21 ]
  %28 = getelementptr inbounds i8, ptr %0, i64 64
  store volatile ptr %.sink.i, ptr %28, align 8
  tail call void asm sideeffect "", "~{memory},~{dirflag},~{fpsr},~{flags}"() #23, !srcloc !6
  %29 = getelementptr inbounds i8, ptr %0, i64 56
  %30 = load ptr, ptr %29, align 8
  %31 = getelementptr inbounds i8, ptr %0, i64 80
  store volatile ptr %30, ptr %31, align 8
  tail call void asm sideeffect "", "~{memory},~{dirflag},~{fpsr},~{flags}"() #23, !srcloc !6
  store volatile ptr null, ptr %6, align 8
  br label %32

32:                                               ; preds = %_ZN6Method10clear_codeEv.exit, %9
  br i1 %4, label %_ZN22ConditionalMutexLockerD2Ev.exit, label %33

33:                                               ; preds = %32
  tail call void @_ZN5Mutex6unlockEv(ptr noundef nonnull align 8 dereferenceable(104) %3) #23
  br label %_ZN22ConditionalMutexLockerD2Ev.exit

_ZN22ConditionalMutexLockerD2Ev.exit:             ; preds = %32, %33
  ret void
}